target datalayout = "e-m:e-p270:32:32-p271:32:32-p272:64:64-i64:64-i128:128-f80:128-n8:16:32:64-S128"
target triple = "x86_64-pc-linux-gnu"

%"class.std::__cxx11::basic_string" = type { %"struct.std::__cxx11::basic_string<char>::_Alloc_hider", i64, %union.anon }
%"struct.std::__cxx11::basic_string<char>::_Alloc_hider" = type { ptr }
%union.anon = type { i64, [8 x i8] }
%"class.std::basic_string_view" = type { i64, ptr }
%"class.std::__cxx11::basic_string.0" = type { %"struct.std::__cxx11::basic_string<wchar_t>::_Alloc_hider", i64, %union.anon.4 }
%"struct.std::__cxx11::basic_string<wchar_t>::_Alloc_hider" = type { ptr }
%union.anon.4 = type { i64, [8 x i8] }
%"class.std::basic_string_view.5" = type { i64, ptr }

; Function Attrs: mustprogress uwtable
define void @_ZN5ZXing15TextUtfEncoding6ToUtf8B5cxx11ESt17basic_string_viewIwSt11char_traitsIwEE(ptr dead_on_unwind noalias writable sret(%"class.std::__cxx11::basic_string") align 8 %0, i64 %1, ptr %2) #0 {
  %4 = alloca ptr, align 8
  %5 = alloca %"class.std::basic_string_view", align 8
  %6 = alloca %"class.std::basic_string_view", align 8
  store ptr %0, ptr %4, align 8
  %7 = getelementptr inbounds { i64, ptr }, ptr %5, i32 0, i32 0
  store i64 %1, ptr %7, align 8
  %8 = getelementptr inbounds { i64, ptr }, ptr %5, i32 0, i32 1
  store ptr %2, ptr %8, align 8
  call void @llvm.memcpy.p0.p0.i64(ptr align 8 %6, ptr align 8 %5, i64 16, i1 false)
  %9 = getelementptr inbounds { i64, ptr }, ptr %6, i32 0, i32 0
  %10 = load i64, ptr %9, align 8
  %11 = getelementptr inbounds { i64, ptr }, ptr %6, i32 0, i32 1
  %12 = load ptr, ptr %11, align 8
  call void @_ZN5ZXing6ToUtf8B5cxx11ESt17basic_string_viewIwSt11char_traitsIwEE(ptr dead_on_unwind writable sret(%"class.std::__cxx11::basic_string") align 8 %0, i64 %10, ptr %12)
  ret void
}

declare void @_ZN5ZXing6ToUtf8B5cxx11ESt17basic_string_viewIwSt11char_traitsIwEE(ptr dead_on_unwind writable sret(%"class.std::__cxx11::basic_string") align 8, i64, ptr) #1

; Function Attrs: nocallback nofree nounwind willreturn memory(argmem: readwrite)
declare void @llvm.memcpy.p0.p0.i64(ptr noalias nocapture writeonly, ptr noalias nocapture readonly, i64, i1 immarg) #2

; Function Attrs: mustprogress uwtable
define void @_ZN5ZXing15TextUtfEncoding6ToUtf8B5cxx11ESt17basic_string_viewIwSt11char_traitsIwEEb(ptr dead_on_unwind noalias writable sret(%"class.std::__cxx11::basic_string") align 8 %0, i64 %1, ptr %2, i1 noundef zeroext %3) #0 personality ptr @__gxx_personality_v0 {
  %5 = alloca ptr, align 8
  %6 = alloca %"class.std::basic_string_view", align 8
  %7 = alloca i8, align 1
  %8 = alloca %"class.std::basic_string_view", align 8
  %9 = alloca %"class.std::__cxx11::basic_string.0", align 8
  %10 = alloca %"class.std::basic_string_view", align 8
  %11 = alloca i1, align 1
  %12 = alloca ptr, align 8
  %13 = alloca i32, align 4
  %14 = alloca %"class.std::basic_string_view", align 8
  store ptr %0, ptr %5, align 8
  %15 = getelementptr inbounds { i64, ptr }, ptr %6, i32 0, i32 0
  store i64 %1, ptr %15, align 8
  %16 = getelementptr inbounds { i64, ptr }, ptr %6, i32 0, i32 1
  store ptr %2, ptr %16, align 8
  %17 = zext i1 %3 to i8
  store i8 %17, ptr %7, align 1
  %18 = load i8, ptr %7, align 1
  %19 = trunc i8 %18 to i1
  store i1 false, ptr %11, align 1
  br i1 %19, label %20, label %35

20:                                               ; preds = %4
  call void @llvm.memcpy.p0.p0.i64(ptr align 8 %10, ptr align 8 %6, i64 16, i1 false)
  %21 = getelementptr inbounds { i64, ptr }, ptr %10, i32 0, i32 0
  %22 = load i64, ptr %21, align 8
  %23 = getelementptr inbounds { i64, ptr }, ptr %10, i32 0, i32 1
  %24 = load ptr, ptr %23, align 8
  call void @_ZN5ZXing18EscapeNonGraphicalB5cxx11ESt17basic_string_viewIwSt11char_traitsIwEE(ptr dead_on_unwind writable sret(%"class.std::__cxx11::basic_string.0") align 8 %9, i64 %22, ptr %24)
  store i1 true, ptr %11, align 1
  %25 = call { i64, ptr } @_ZNKSt7__cxx1112basic_stringIwSt11char_traitsIwESaIwEEcvSt17basic_string_viewIwS2_EEv(ptr noundef nonnull align 8 dereferenceable(32) %9) #4
  %26 = getelementptr inbounds { i64, ptr }, ptr %8, i32 0, i32 0
  %27 = extractvalue { i64, ptr } %25, 0
  store i64 %27, ptr %26, align 8
  %28 = getelementptr inbounds { i64, ptr }, ptr %8, i32 0, i32 1
  %29 = extractvalue { i64, ptr } %25, 1
  store ptr %29, ptr %28, align 8
  %30 = getelementptr inbounds { i64, ptr }, ptr %8, i32 0, i32 0
  %31 = load i64, ptr %30, align 8
  %32 = getelementptr inbounds { i64, ptr }, ptr %8, i32 0, i32 1
  %33 = load ptr, ptr %32, align 8
  invoke void @_ZN5ZXing6ToUtf8B5cxx11ESt17basic_string_viewIwSt11char_traitsIwEE(ptr dead_on_unwind writable sret(%"class.std::__cxx11::basic_string") align 8 %0, i64 %31, ptr %33)
          to label %34 unwind label %45

34:                                               ; preds = %20
  br label %41

35:                                               ; preds = %4
  call void @llvm.memcpy.p0.p0.i64(ptr align 8 %14, ptr align 8 %6, i64 16, i1 false)
  %36 = getelementptr inbounds { i64, ptr }, ptr %14, i32 0, i32 0
  %37 = load i64, ptr %36, align 8
  %38 = getelementptr inbounds { i64, ptr }, ptr %14, i32 0, i32 1
  %39 = load ptr, ptr %38, align 8
  invoke void @_ZN5ZXing6ToUtf8B5cxx11ESt17basic_string_viewIwSt11char_traitsIwEE(ptr dead_on_unwind writable sret(%"class.std::__cxx11::basic_string") align 8 %0, i64 %37, ptr %39)
          to label %40 unwind label %45

40:                                               ; preds = %35
  br label %41

41:                                               ; preds = %40, %34
  %42 = load i1, ptr %11, align 1
  br i1 %42, label %43, label %44

43:                                               ; preds = %41
  call void @_ZNSt7__cxx1112basic_stringIwSt11char_traitsIwESaIwEED1Ev(ptr noundef nonnull align 8 dereferenceable(32) %9) #4
  br label %44

44:                                               ; preds = %43, %41
  ret void

45:                                               ; preds = %35, %20
  %46 = landingpad { ptr, i32 }
          cleanup
  %47 = extractvalue { ptr, i32 } %46, 0
  store ptr %47, ptr %12, align 8
  %48 = extractvalue { ptr, i32 } %46, 1
  store i32 %48, ptr %13, align 4
  %49 = load i1, ptr %11, align 1
  br i1 %49, label %50, label %51

50:                                               ; preds = %45
  call void @_ZNSt7__cxx1112basic_stringIwSt11char_traitsIwESaIwEED1Ev(ptr noundef nonnull align 8 dereferenceable(32) %9) #4
  br label %51

51:                                               ; preds = %50, %45
  br label %52

52:                                               ; preds = %51
  %53 = load ptr, ptr %12, align 8
  %54 = load i32, ptr %13, align 4
  %55 = insertvalue { ptr, i32 } poison, ptr %53, 0
  %56 = insertvalue { ptr, i32 } %55, i32 %54, 1
  resume { ptr, i32 } %56
}

declare void @_ZN5ZXing18EscapeNonGraphicalB5cxx11ESt17basic_string_viewIwSt11char_traitsIwEE(ptr dead_on_unwind writable sret(%"class.std::__cxx11::basic_string.0") align 8, i64, ptr) #1

; Function Attrs: nounwind
declare { i64, ptr } @_ZNKSt7__cxx1112basic_stringIwSt11char_traitsIwESaIwEEcvSt17basic_string_viewIwS2_EEv(ptr noundef nonnull align 8 dereferenceable(32)) #3

declare i32 @__gxx_personality_v0(...)

; Function Attrs: nounwind
declare void @_ZNSt7__cxx1112basic_stringIwSt11char_traitsIwESaIwEED1Ev(ptr noundef nonnull align 8 dereferenceable(32)) unnamed_addr #3

; Function Attrs: mustprogress uwtable
define void @_ZN5ZXing15TextUtfEncoding8FromUtf8B5cxx11ESt17basic_string_viewIcSt11char_traitsIcEE(ptr dead_on_unwind noalias writable sret(%"class.std::__cxx11::basic_string.0") align 8 %0, i64 %1, ptr %2) #0 {
  %4 = alloca ptr, align 8
  %5 = alloca %"class.std::basic_string_view.5", align 8
  %6 = alloca %"class.std::basic_string_view.5", align 8
  store ptr %0, ptr %4, align 8
  %7 = getelementptr inbounds { i64, ptr }, ptr %5, i32 0, i32 0
  store i64 %1, ptr %7, align 8
  %8 = getelementptr inbounds { i64, ptr }, ptr %5, i32 0, i32 1
  store ptr %2, ptr %8, align 8
  call void @llvm.memcpy.p0.p0.i64(ptr align 8 %6, ptr align 8 %5, i64 16, i1 false)
  %9 = getelementptr inbounds { i64, ptr }, ptr %6, i32 0, i32 0
  %10 = load i64, ptr %9, align 8
  %11 = getelementptr inbounds { i64, ptr }, ptr %6, i32 0, i32 1
  %12 = load ptr, ptr %11, align 8
  call void @_ZN5ZXing8FromUtf8B5cxx11ESt17basic_string_viewIcSt11char_traitsIcEE(ptr dead_on_unwind writable sret(%"class.std::__cxx11::basic_string.0") align 8 %0, i64 %10, ptr %12)
  ret void
}

declare void @_ZN5ZXing8FromUtf8B5cxx11ESt17basic_string_viewIcSt11char_traitsIcEE(ptr dead_on_unwind writable sret(%"class.std::__cxx11::basic_string.0") align 8, i64, ptr) #1


!llvm.module.flags = !{!0, !1, !2, !3}

!0 = !{i32 1, !"wchar_size", i32 4}
!1 = !{i32 8, !"PIC Level", i32 2}
!2 = !{i32 7, !"uwtable", i32 2}
!3 = !{i32 7, !"frame-pointer", i32 2}
