; ModuleID = 'bench/zxing/original/TextUtfEncoding.cpp.ll'
source_filename = "bench/zxing/original/TextUtfEncoding.cpp.ll"
target datalayout = "e-m:e-p270:32:32-p271:32:32-p272:64:64-i64:64-i128:128-f80:128-n8:16:32:64-S128"
target triple = "x86_64-pc-linux-gnu"

%"class.std::__cxx11::basic_string" = type { %"struct.std::__cxx11::basic_string<char>::_Alloc_hider", i64, %union.anon }
%"struct.std::__cxx11::basic_string<char>::_Alloc_hider" = type { ptr }
%union.anon = type { i64, [8 x i8] }
%"class.std::__cxx11::basic_string.0" = type { %"struct.std::__cxx11::basic_string<wchar_t>::_Alloc_hider", i64, %union.anon.4 }
%"struct.std::__cxx11::basic_string<wchar_t>::_Alloc_hider" = type { ptr }
%union.anon.4 = type { i64, [8 x i8] }

; Function Attrs: mustprogress uwtable
define void @_ZN5ZXing15TextUtfEncoding6ToUtf8B5cxx11ESt17basic_string_viewIwSt11char_traitsIwEE(ptr dead_on_unwind noalias writable sret(%"class.std::__cxx11::basic_string") align 8 %0, i64 %1, ptr %2) local_unnamed_addr #0 {
  tail call void @_ZN5ZXing6ToUtf8B5cxx11ESt17basic_string_viewIwSt11char_traitsIwEE(ptr dead_on_unwind writable sret(%"class.std::__cxx11::basic_string") align 8 %0, i64 %1, ptr %2)
  ret void
}

declare void @_ZN5ZXing6ToUtf8B5cxx11ESt17basic_string_viewIwSt11char_traitsIwEE(ptr dead_on_unwind writable sret(%"class.std::__cxx11::basic_string") align 8, i64, ptr) local_unnamed_addr #1

; Function Attrs: mustprogress uwtable
define void @_ZN5ZXing15TextUtfEncoding6ToUtf8B5cxx11ESt17basic_string_viewIwSt11char_traitsIwEEb(ptr dead_on_unwind noalias writable sret(%"class.std::__cxx11::basic_string") align 8 %0, i64 %1, ptr %2, i1 noundef zeroext %3) local_unnamed_addr #0 personality ptr @__gxx_personality_v0 {
  %5 = alloca %"class.std::__cxx11::basic_string.0", align 8
  br i1 %3, label %6, label %10

6:                                                ; preds = %4
  call void @_ZN5ZXing18EscapeNonGraphicalB5cxx11ESt17basic_string_viewIwSt11char_traitsIwEE(ptr dead_on_unwind nonnull writable sret(%"class.std::__cxx11::basic_string.0") align 8 %5, i64 %1, ptr %2)
  %7 = call { i64, ptr } @_ZNKSt7__cxx1112basic_stringIwSt11char_traitsIwESaIwEEcvSt17basic_string_viewIwS2_EEv(ptr noundef nonnull align 8 dereferenceable(32) %5) #3
  %8 = extractvalue { i64, ptr } %7, 0
  %9 = extractvalue { i64, ptr } %7, 1
  invoke void @_ZN5ZXing6ToUtf8B5cxx11ESt17basic_string_viewIwSt11char_traitsIwEE(ptr dead_on_unwind writable sret(%"class.std::__cxx11::basic_string") align 8 %0, i64 %8, ptr %9)
          to label %11 unwind label %13

10:                                               ; preds = %4
  tail call void @_ZN5ZXing6ToUtf8B5cxx11ESt17basic_string_viewIwSt11char_traitsIwEE(ptr dead_on_unwind writable sret(%"class.std::__cxx11::basic_string") align 8 %0, i64 %1, ptr %2)
  br label %12

11:                                               ; preds = %6
  call void @_ZNSt7__cxx1112basic_stringIwSt11char_traitsIwESaIwEED1Ev(ptr noundef nonnull align 8 dereferenceable(32) %5) #3
  br label %12

12:                                               ; preds = %10, %11
  ret void

13:                                               ; preds = %6
  %14 = landingpad { ptr, i32 }
          cleanup
  call void @_ZNSt7__cxx1112basic_stringIwSt11char_traitsIwESaIwEED1Ev(ptr noundef nonnull align 8 dereferenceable(32) %5) #3
  resume { ptr, i32 } %14
}

declare void @_ZN5ZXing18EscapeNonGraphicalB5cxx11ESt17basic_string_viewIwSt11char_traitsIwEE(ptr dead_on_unwind writable sret(%"class.std::__cxx11::basic_string.0") align 8, i64, ptr) local_unnamed_addr #1

; Function Attrs: nounwind
declare { i64, ptr } @_ZNKSt7__cxx1112basic_stringIwSt11char_traitsIwESaIwEEcvSt17basic_string_viewIwS2_EEv(ptr noundef nonnull align 8 dereferenceable(32)) local_unnamed_addr #2

declare i32 @__gxx_personality_v0(...)

; Function Attrs: nounwind
declare void @_ZNSt7__cxx1112basic_stringIwSt11char_traitsIwESaIwEED1Ev(ptr noundef nonnull align 8 dereferenceable(32)) unnamed_addr #2

; Function Attrs: mustprogress uwtable
define void @_ZN5ZXing15TextUtfEncoding8FromUtf8B5cxx11ESt17basic_string_viewIcSt11char_traitsIcEE(ptr dead_on_unwind noalias writable sret(%"class.std::__cxx11::basic_string.0") align 8 %0, i64 %1, ptr %2) local_unnamed_addr #0 {
  tail call void @_ZN5ZXing8FromUtf8B5cxx11ESt17basic_string_viewIcSt11char_traitsIcEE(ptr dead_on_unwind writable sret(%"class.std::__cxx11::basic_string.0") align 8 %0, i64 %1, ptr %2)
  ret void
}

declare void @_ZN5ZXing8FromUtf8B5cxx11ESt17basic_string_viewIcSt11char_traitsIcEE(ptr dead_on_unwind writable sret(%"class.std::__cxx11::basic_string.0") align 8, i64, ptr) local_unnamed_addr #1


!llvm.module.flags = !{!0, !1, !2, !3}

!0 = !{i32 1, !"wchar_size", i32 4}
!1 = !{i32 8, !"PIC Level", i32 2}
!2 = !{i32 7, !"uwtable", i32 2}
!3 = !{i32 7, !"frame-pointer", i32 2}
